target datalayout = "e-m:e-p270:32:32-p271:32:32-p272:64:64-i64:64-i128:128-f80:128-n8:16:32:64-S128"
target triple = "x86_64-pc-linux-gnu"

%struct.expert_field = type { i32, i32 }
%struct._packet_info = type { ptr, ptr, i32, i32, %struct.nstime_t, %struct.nstime_t, %struct.nstime_t, i8, ptr, ptr, ptr, ptr, %struct._address, %struct._address, %struct._address, %struct._address, %struct._address, %struct._address, i32, ptr, i8, [3 x i8], %struct.anon, i32, i32, i32, i32, ptr, i8, ptr, ptr, i16, i16, i32, i32, i16, i32, i32, ptr, ptr, ptr, i8, i8, i16, i16, i16, i32, i16, i16, ptr, ptr, ptr, ptr, ptr, i32, i32 }
%struct.nstime_t = type { i64, i32 }
%struct._address = type { i32, i32, ptr, ptr }
%struct.anon = type { i8, [3 x i8] }

@hf_docsis_dpr_carrier = internal global i32 0, align 4
@hf_docsis_dpr_dcid = internal global i32 0, align 4
@hf_docsis_dpr_tg_id = internal global i32 0, align 4
@hf_docsis_dpr_reserved = internal global i32 0, align 4
@hf_docsis_dpr_start_time = internal global i32 0, align 4
@hf_docsis_dpr_duration = internal global i32 0, align 4
@ett_docsis_dpr = internal global i32 0, align 4
@ei_docsis_dpr_out_of_range = internal global %struct.expert_field zeroinitializer, align 4
@proto_docsis_dpr = internal global i32 0, align 4
@.str.2253 = private unnamed_addr constant [25 x i8] c"Invalid DPR Duration: %u\00", align 1
@.str.2254 = private unnamed_addr constant [24 x i8] c"DPR DCID %u on TG ID %u\00", align 1

; Function Attrs: null_pointer_is_valid sspstrong uwtable
define internal i32 @dissect_dpr(ptr noundef %0, ptr noundef %1, ptr noundef %2, ptr noundef %3) #0 {
  %5 = alloca ptr, align 8
  %6 = alloca ptr, align 8
  %7 = alloca ptr, align 8
  %8 = alloca ptr, align 8
  %9 = alloca ptr, align 8
  %10 = alloca ptr, align 8
  %11 = alloca ptr, align 8
  %12 = alloca i32, align 4
  %13 = alloca i32, align 4
  %14 = alloca i32, align 4
  store ptr %0, ptr %5, align 8
  store ptr %1, ptr %6, align 8
  store ptr %2, ptr %7, align 8
  store ptr %3, ptr %8, align 8
  call void @llvm.lifetime.start.p0(i64 8, ptr %9) #6
  call void @llvm.lifetime.start.p0(i64 8, ptr %10) #6
  call void @llvm.lifetime.start.p0(i64 8, ptr %11) #6
  call void @llvm.lifetime.start.p0(i64 4, ptr %12) #6
  call void @llvm.lifetime.start.p0(i64 4, ptr %13) #6
  call void @llvm.lifetime.start.p0(i64 4, ptr %14) #6
  %15 = load ptr, ptr %7, align 8
  %16 = load i32, ptr @proto_docsis_dpr, align 4
  %17 = load ptr, ptr %5, align 8
  %18 = call ptr @proto_tree_add_item(ptr noundef %15, i32 noundef %16, ptr noundef %17, i32 noundef 0, i32 noundef -1, i32 noundef 0)
  store ptr %18, ptr %9, align 8
  %19 = load ptr, ptr %9, align 8
  %20 = load i32, ptr @ett_docsis_dpr, align 4
  %21 = call ptr @proto_item_add_subtree(ptr noundef %19, i32 noundef %20)
  store ptr %21, ptr %11, align 8
  %22 = load ptr, ptr %11, align 8
  %23 = load i32, ptr @hf_docsis_dpr_carrier, align 4
  %24 = load ptr, ptr %5, align 8
  %25 = call ptr @proto_tree_add_item(ptr noundef %22, i32 noundef %23, ptr noundef %24, i32 noundef 0, i32 noundef 1, i32 noundef 0)
  %26 = load ptr, ptr %11, align 8
  %27 = load i32, ptr @hf_docsis_dpr_dcid, align 4
  %28 = load ptr, ptr %5, align 8
  %29 = call ptr @proto_tree_add_item_ret_uint(ptr noundef %26, i32 noundef %27, ptr noundef %28, i32 noundef 1, i32 noundef 1, i32 noundef 0, ptr noundef %12)
  %30 = load ptr, ptr %11, align 8
  %31 = load i32, ptr @hf_docsis_dpr_tg_id, align 4
  %32 = load ptr, ptr %5, align 8
  %33 = call ptr @proto_tree_add_item_ret_uint(ptr noundef %30, i32 noundef %31, ptr noundef %32, i32 noundef 2, i32 noundef 1, i32 noundef 0, ptr noundef %13)
  %34 = load ptr, ptr %11, align 8
  %35 = load i32, ptr @hf_docsis_dpr_reserved, align 4
  %36 = load ptr, ptr %5, align 8
  %37 = call ptr @proto_tree_add_item(ptr noundef %34, i32 noundef %35, ptr noundef %36, i32 noundef 3, i32 noundef 1, i32 noundef 0)
  %38 = load ptr, ptr %11, align 8
  %39 = load i32, ptr @hf_docsis_dpr_start_time, align 4
  %40 = load ptr, ptr %5, align 8
  %41 = call ptr @proto_tree_add_item(ptr noundef %38, i32 noundef %39, ptr noundef %40, i32 noundef 4, i32 noundef 4, i32 noundef 0)
  %42 = load ptr, ptr %11, align 8
  %43 = load i32, ptr @hf_docsis_dpr_duration, align 4
  %44 = load ptr, ptr %5, align 8
  %45 = call ptr @proto_tree_add_item_ret_uint(ptr noundef %42, i32 noundef %43, ptr noundef %44, i32 noundef 8, i32 noundef 4, i32 noundef 0, ptr noundef %14)
  store ptr %45, ptr %10, align 8
  %46 = load i32, ptr %14, align 4
  %47 = and i32 %46, -16777216
  %48 = icmp ugt i32 %47, 0
  br i1 %48, label %49, label %54

49:                                               ; preds = %4
  %50 = load ptr, ptr %6, align 8
  %51 = load ptr, ptr %10, align 8
  %52 = load i32, ptr %14, align 4
  %53 = call ptr (ptr, ptr, ptr, ptr, ...) @expert_add_info_format(ptr noundef %50, ptr noundef %51, ptr noundef @ei_docsis_dpr_out_of_range, ptr noundef @.str.2253, i32 noundef %52)
  br label %54

54:                                               ; preds = %49, %4
  %55 = load ptr, ptr %6, align 8
  %56 = getelementptr inbounds nuw %struct._packet_info, ptr %55, i32 0, i32 1
  %57 = load ptr, ptr %56, align 8
  %58 = load i32, ptr %12, align 4
  %59 = load i32, ptr %13, align 4
  call void (ptr, i32, ptr, ...) @col_add_fstr(ptr noundef %57, i32 noundef 25, ptr noundef @.str.2254, i32 noundef %58, i32 noundef %59)
  %60 = load ptr, ptr %5, align 8
  %61 = call i32 @tvb_captured_length(ptr noundef %60)
  call void @llvm.lifetime.end.p0(i64 4, ptr %14) #6
  call void @llvm.lifetime.end.p0(i64 4, ptr %13) #6
  call void @llvm.lifetime.end.p0(i64 4, ptr %12) #6
  call void @llvm.lifetime.end.p0(i64 8, ptr %11) #6
  call void @llvm.lifetime.end.p0(i64 8, ptr %10) #6
  call void @llvm.lifetime.end.p0(i64 8, ptr %9) #6
  ret i32 %61
}