; Function Attrs: null_pointer_is_valid sspstrong uwtable
define internal i32 @dissect_dpr(ptr noundef %0, ptr noundef %1, ptr noundef %2, ptr readnone captures(none) %3) #0 {
  %5 = alloca i32, align 4
  %6 = alloca i32, align 4
  %7 = alloca i32, align 4
  call void @llvm.lifetime.start.p0(i64 4, ptr nonnull %5) #6
  call void @llvm.lifetime.start.p0(i64 4, ptr nonnull %6) #6
  call void @llvm.lifetime.start.p0(i64 4, ptr nonnull %7) #6
  %8 = load i32, ptr @proto_docsis_dpr, align 4
  %9 = tail call ptr @proto_tree_add_item(ptr noundef %2, i32 noundef %8, ptr noundef %0, i32 noundef 0, i32 noundef -1, i32 noundef 0)
  %10 = load i32, ptr @ett_docsis_dpr, align 4
  %11 = tail call ptr @proto_item_add_subtree(ptr noundef %9, i32 noundef %10)
  %12 = load i32, ptr @hf_docsis_dpr_carrier, align 4
  %13 = tail call ptr @proto_tree_add_item(ptr noundef %11, i32 noundef %12, ptr noundef %0, i32 noundef 0, i32 noundef 1, i32 noundef 0)
  %14 = load i32, ptr @hf_docsis_dpr_dcid, align 4
  %15 = call ptr @proto_tree_add_item_ret_uint(ptr noundef %11, i32 noundef %14, ptr noundef %0, i32 noundef 1, i32 noundef 1, i32 noundef 0, ptr noundef nonnull %5)
  %16 = load i32, ptr @hf_docsis_dpr_tg_id, align 4
  %17 = call ptr @proto_tree_add_item_ret_uint(ptr noundef %11, i32 noundef %16, ptr noundef %0, i32 noundef 2, i32 noundef 1, i32 noundef 0, ptr noundef nonnull %6)
  %18 = load i32, ptr @hf_docsis_dpr_reserved, align 4
  %19 = call ptr @proto_tree_add_item(ptr noundef %11, i32 noundef %18, ptr noundef %0, i32 noundef 3, i32 noundef 1, i32 noundef 0)
  %20 = load i32, ptr @hf_docsis_dpr_start_time, align 4
  %21 = call ptr @proto_tree_add_item(ptr noundef %11, i32 noundef %20, ptr noundef %0, i32 noundef 4, i32 noundef 4, i32 noundef 0)
  %22 = load i32, ptr @hf_docsis_dpr_duration, align 4
  %23 = call ptr @proto_tree_add_item_ret_uint(ptr noundef %11, i32 noundef %22, ptr noundef %0, i32 noundef 8, i32 noundef 4, i32 noundef 0, ptr noundef nonnull %7)
  %24 = load i32, ptr %7, align 4
  %.not = icmp ult i32 %24, 16777216
  br i1 %.not, label %27, label %25

25:                                               ; preds = %4
  %26 = call ptr (ptr, ptr, ptr, ptr, ...) @expert_add_info_format(ptr noundef %1, ptr noundef %23, ptr noundef nonnull @ei_docsis_dpr_out_of_range, ptr noundef nonnull @.str.2253, i32 noundef %24)
  br label %27

27:                                               ; preds = %25, %4
  %28 = getelementptr inbounds nuw i8, ptr %1, i64 8
  %29 = load ptr, ptr %28, align 8
  %30 = load i32, ptr %5, align 4
  %31 = load i32, ptr %6, align 4
  call void (ptr, i32, ptr, ...) @col_add_fstr(ptr noundef %29, i32 noundef 25, ptr noundef nonnull @.str.2254, i32 noundef %30, i32 noundef %31)
  %32 = call i32 @tvb_captured_length(ptr noundef %0)
  call void @llvm.lifetime.end.p0(i64 4, ptr nonnull %7) #6
  call void @llvm.lifetime.end.p0(i64 4, ptr nonnull %6) #6
  call void @llvm.lifetime.end.p0(i64 4, ptr nonnull %5) #6
  ret i32 %32
}